; Function Attrs: nounwind uwtable
define ptr @ssl_session_dup(ptr noundef %0, i32 noundef %1) local_unnamed_addr #3 {
  %3 = tail call fastcc ptr @ssl_session_dup_intern(ptr noundef %0, i32 noundef %1)
  %.not = icmp eq ptr %3, null
  br i1 %.not, label %6, label %4

4:                                                ; preds = %2
  %5 = getelementptr inbounds nuw i8, ptr %3, i64 688
  store i32 0, ptr %5, align 8, !tbaa !90
  br label %6

6:                                                ; preds = %4, %2
  ret ptr %3
}